target datalayout = "e-m:e-p270:32:32-p271:32:32-p272:64:64-i64:64-i128:128-f80:128-n8:16:32:64-S128"
target triple = "x86_64-pc-linux-gnu"

%struct.profile = type { i16, i8, %struct._address, i32, i32, ptr, ptr, ptr, ptr, ptr, ptr, ptr, i32, ptr, ptr, ptr }
%struct._address = type { i32, i32, ptr, ptr }
%struct._xmlNodeSet = type { i32, i32, ptr }
%struct._xmlNode = type { ptr, i32, ptr, ptr, ptr, ptr, ptr, ptr, ptr, ptr, ptr, ptr, ptr, ptr, i16, i16 }
%struct._xmlAttr = type { ptr, i32, ptr, ptr, ptr, ptr, ptr, ptr, ptr, ptr, i32, ptr }
%struct.datatype = type { i16, ptr }

@.str.48 = private unnamed_addr constant [9 x i8] c"dataType\00", align 1
@.str.49 = private unnamed_addr constant [28 x i8] c"Skipping unknown type '%s'\0A\00", align 1

; Function Attrs: null_pointer_is_valid sspstrong uwtable
define internal i32 @populate_datatype_list(ptr noundef %0, ptr noundef %1) #0 {
  %3 = alloca i32, align 4
  %4 = alloca ptr, align 8
  %5 = alloca ptr, align 8
  %6 = alloca ptr, align 8
  %7 = alloca i32, align 4
  %8 = alloca ptr, align 8
  %9 = alloca ptr, align 8
  %10 = alloca i32, align 4
  %11 = alloca ptr, align 8
  %12 = alloca ptr, align 8
  %13 = alloca ptr, align 8
  %14 = alloca ptr, align 8
  %15 = alloca i16, align 2
  %16 = alloca ptr, align 8
  %17 = alloca ptr, align 8
  %18 = alloca i64, align 8
  %19 = alloca i64, align 8
  %20 = alloca ptr, align 8
  %21 = alloca ptr, align 8
  store ptr %0, ptr %4, align 8
  store ptr %1, ptr %5, align 8
  call void @llvm.lifetime.start.p0(i64 8, ptr %6) #13
  call void @llvm.lifetime.start.p0(i64 4, ptr %7) #13
  call void @llvm.lifetime.start.p0(i64 8, ptr %8) #13
  %22 = load ptr, ptr %5, align 8
  store ptr %22, ptr %8, align 8
  store i32 0, ptr %7, align 4
  br label %23

23:                                               ; preds = %171, %2
  %24 = load i32, ptr %7, align 4
  %25 = load ptr, ptr %4, align 8
  %26 = getelementptr inbounds nuw %struct._xmlNodeSet, ptr %25, i32 0, i32 0
  %27 = load i32, ptr %26, align 8
  %28 = icmp slt i32 %24, %27
  br i1 %28, label %29, label %174

29:                                               ; preds = %23
  call void @llvm.lifetime.start.p0(i64 8, ptr %9) #13
  %30 = load ptr, ptr %4, align 8
  %31 = getelementptr inbounds nuw %struct._xmlNodeSet, ptr %30, i32 0, i32 2
  %32 = load ptr, ptr %31, align 8
  %33 = load i32, ptr %7, align 4
  %34 = sext i32 %33 to i64
  %35 = getelementptr ptr, ptr %32, i64 %34
  %36 = load ptr, ptr %35, align 8
  %37 = icmp ne ptr %36, null
  br i1 %37, label %38, label %49

38:                                               ; preds = %29
  %39 = load ptr, ptr %4, align 8
  %40 = getelementptr inbounds nuw %struct._xmlNodeSet, ptr %39, i32 0, i32 2
  %41 = load ptr, ptr %40, align 8
  %42 = load i32, ptr %7, align 4
  %43 = sext i32 %42 to i64
  %44 = getelementptr ptr, ptr %41, i64 %43
  %45 = load ptr, ptr %44, align 8
  %46 = getelementptr inbounds nuw %struct._xmlNode, ptr %45, i32 0, i32 1
  %47 = load i32, ptr %46, align 8
  %48 = icmp ne i32 %47, 1
  br i1 %48, label %49, label %50

49:                                               ; preds = %38, %29
  store i32 -1, ptr %3, align 4
  store i32 1, ptr %10, align 4
  br label %168

50:                                               ; preds = %38
  %51 = load ptr, ptr %4, align 8
  %52 = getelementptr inbounds nuw %struct._xmlNodeSet, ptr %51, i32 0, i32 2
  %53 = load ptr, ptr %52, align 8
  %54 = load i32, ptr %7, align 4
  %55 = sext i32 %54 to i64
  %56 = getelementptr ptr, ptr %53, i64 %55
  %57 = load ptr, ptr %56, align 8
  store ptr %57, ptr %6, align 8
  %58 = load ptr, ptr %6, align 8
  %59 = getelementptr inbounds nuw %struct._xmlNode, ptr %58, i32 0, i32 11
  %60 = load ptr, ptr %59, align 8
  store ptr %60, ptr %9, align 8
  br label %61

61:                                               ; preds = %163, %50
  %62 = load ptr, ptr %9, align 8
  %63 = icmp ne ptr %62, null
  br i1 %63, label %64, label %167

64:                                               ; preds = %61
  call void @llvm.lifetime.start.p0(i64 8, ptr %11) #13
  call void @llvm.lifetime.start.p0(i64 8, ptr %12) #13
  %65 = load ptr, ptr %9, align 8
  %66 = getelementptr inbounds nuw %struct._xmlAttr, ptr %65, i32 0, i32 2
  %67 = load ptr, ptr %66, align 8
  store ptr %67, ptr %12, align 8
  call void @llvm.lifetime.start.p0(i64 8, ptr %13) #13
  %68 = load ptr, ptr %9, align 8
  %69 = getelementptr inbounds nuw %struct._xmlAttr, ptr %68, i32 0, i32 3
  %70 = load ptr, ptr %69, align 8
  %71 = getelementptr inbounds nuw %struct._xmlNode, ptr %70, i32 0, i32 10
  %72 = load ptr, ptr %71, align 8
  store ptr %72, ptr %13, align 8
  %73 = load ptr, ptr %12, align 8
  %74 = call i32 @g_str_equal(ptr noundef @.str.48, ptr noundef %73)
  %75 = icmp ne i32 %74, 0
  br i1 %75, label %76, label %159

76:                                               ; preds = %64
  call void @llvm.lifetime.start.p0(i64 8, ptr %14) #13
  call void @llvm.lifetime.start.p0(i64 2, ptr %15) #13
  store i16 0, ptr %15, align 2
  %77 = load ptr, ptr %13, align 8
  %78 = call zeroext i1 @ws_hexstrtou16(ptr noundef %77, ptr noundef %11, ptr noundef %15)
  br i1 %78, label %80, label %79

79:                                               ; preds = %76
  store i32 7, ptr %10, align 4
  br label %156

80:                                               ; preds = %76
  %81 = load ptr, ptr %6, align 8
  %82 = getelementptr inbounds nuw %struct._xmlNode, ptr %81, i32 0, i32 3
  %83 = load ptr, ptr %82, align 8
  store ptr %83, ptr %14, align 8
  br label %84

84:                                               ; preds = %151, %80
  %85 = load ptr, ptr %14, align 8
  %86 = icmp ne ptr %85, null
  br i1 %86, label %87, label %155

87:                                               ; preds = %84
  %88 = load ptr, ptr %14, align 8
  %89 = getelementptr inbounds nuw %struct._xmlNode, ptr %88, i32 0, i32 1
  %90 = load i32, ptr %89, align 8
  %91 = icmp eq i32 %90, 1
  br i1 %91, label %92, label %150

92:                                               ; preds = %87
  call void @llvm.lifetime.start.p0(i64 8, ptr %16) #13
  call void @llvm.lifetime.start.p0(i64 8, ptr %17) #13
  %93 = load ptr, ptr %14, align 8
  %94 = getelementptr inbounds nuw %struct._xmlNode, ptr %93, i32 0, i32 2
  %95 = load ptr, ptr %94, align 8
  %96 = call ptr @epl_type_to_hf(ptr noundef %95)
  store ptr %96, ptr %17, align 8
  %97 = load ptr, ptr %17, align 8
  %98 = icmp ne ptr %97, null
  br i1 %98, label %103, label %99

99:                                               ; preds = %92
  %100 = load ptr, ptr %14, align 8
  %101 = getelementptr inbounds nuw %struct._xmlNode, ptr %100, i32 0, i32 2
  %102 = load ptr, ptr %101, align 8
  call void (ptr, i32, ptr, ...) @ws_log(ptr noundef null, i32 noundef 3, ptr noundef @.str.49, ptr noundef %102)
  store i32 10, ptr %10, align 4
  br label %149

103:                                              ; preds = %92
  call void @llvm.lifetime.start.p0(i64 8, ptr %18) #13
  store i64 1, ptr %18, align 8
  call void @llvm.lifetime.start.p0(i64 8, ptr %19) #13
  store i64 16, ptr %19, align 8
  call void @llvm.lifetime.start.p0(i64 8, ptr %20) #13
  %104 = load i64, ptr %19, align 8
  %105 = icmp eq i64 %104, 1
  br i1 %105, label %106, label %109

106:                                              ; preds = %103
  %107 = load i64, ptr %18, align 8
  %108 = call noalias ptr @g_malloc(i64 noundef %107) #17
  store ptr %108, ptr %20, align 8
  br label %130

109:                                              ; preds = %103
  %110 = load i64, ptr %18, align 8
  %111 = call i1 @llvm.is.constant.i64(i64 %110)
  br i1 %111, label %112, label %125

112:                                              ; preds = %109
  %113 = load i64, ptr %19, align 8
  %114 = icmp eq i64 %113, 0
  br i1 %114, label %120, label %115

115:                                              ; preds = %112
  %116 = load i64, ptr %18, align 8
  %117 = load i64, ptr %19, align 8
  %118 = udiv i64 -1, %117
  %119 = icmp ule i64 %116, %118
  br i1 %119, label %120, label %125

120:                                              ; preds = %115, %112
  %121 = load i64, ptr %18, align 8
  %122 = load i64, ptr %19, align 8
  %123 = mul i64 %121, %122
  %124 = call noalias ptr @g_malloc(i64 noundef %123) #17
  store ptr %124, ptr %20, align 8
  br label %129

125:                                              ; preds = %115, %109
  %126 = load i64, ptr %18, align 8
  %127 = load i64, ptr %19, align 8
  %128 = call noalias ptr @g_malloc_n(i64 noundef %126, i64 noundef %127) #18
  store ptr %128, ptr %20, align 8
  br label %129

129:                                              ; preds = %125, %120
  br label %130

130:                                              ; preds = %129, %106
  %131 = load ptr, ptr %20, align 8
  store ptr %131, ptr %21, align 8
  call void @llvm.lifetime.end.p0(i64 8, ptr %20) #13
  call void @llvm.lifetime.end.p0(i64 8, ptr %19) #13
  call void @llvm.lifetime.end.p0(i64 8, ptr %18) #13
  %132 = load ptr, ptr %21, align 8
  store ptr %132, ptr %16, align 8
  %133 = load i16, ptr %15, align 2
  %134 = load ptr, ptr %16, align 8
  %135 = getelementptr inbounds nuw %struct.datatype, ptr %134, i32 0, i32 0
  store i16 %133, ptr %135, align 8
  %136 = load ptr, ptr %17, align 8
  %137 = load ptr, ptr %16, align 8
  %138 = getelementptr inbounds nuw %struct.datatype, ptr %137, i32 0, i32 1
  store ptr %136, ptr %138, align 8
  %139 = load ptr, ptr %8, align 8
  %140 = getelementptr inbounds nuw %struct.profile, ptr %139, i32 0, i32 11
  %141 = load ptr, ptr %140, align 8
  %142 = load ptr, ptr %16, align 8
  %143 = getelementptr inbounds nuw %struct.datatype, ptr %142, i32 0, i32 0
  %144 = load i16, ptr %143, align 8
  %145 = zext i16 %144 to i64
  %146 = inttoptr i64 %145 to ptr
  %147 = load ptr, ptr %16, align 8
  %148 = call i32 @g_hash_table_insert(ptr noundef %141, ptr noundef %146, ptr noundef %147)
  store i32 10, ptr %10, align 4
  br label %149

149:                                              ; preds = %130, %99
  call void @llvm.lifetime.end.p0(i64 8, ptr %17) #13
  call void @llvm.lifetime.end.p0(i64 8, ptr %16) #13
  br label %151

150:                                              ; preds = %87
  br label %151

151:                                              ; preds = %150, %149
  %152 = load ptr, ptr %14, align 8
  %153 = getelementptr inbounds nuw %struct._xmlNode, ptr %152, i32 0, i32 6
  %154 = load ptr, ptr %153, align 8
  store ptr %154, ptr %14, align 8
  br label %84, !llvm.loop !16

155:                                              ; preds = %84
  store i32 0, ptr %10, align 4
  br label %156

156:                                              ; preds = %155, %79
  call void @llvm.lifetime.end.p0(i64 2, ptr %15) #13
  call void @llvm.lifetime.end.p0(i64 8, ptr %14) #13
  %157 = load i32, ptr %10, align 4
  switch i32 %157, label %160 [
    i32 0, label %158
  ]

158:                                              ; preds = %156
  br label %159

159:                                              ; preds = %158, %64
  store i32 0, ptr %10, align 4
  br label %160

160:                                              ; preds = %159, %156
  call void @llvm.lifetime.end.p0(i64 8, ptr %13) #13
  call void @llvm.lifetime.end.p0(i64 8, ptr %12) #13
  call void @llvm.lifetime.end.p0(i64 8, ptr %11) #13
  %161 = load i32, ptr %10, align 4
  switch i32 %161, label %177 [
    i32 0, label %162
    i32 7, label %163
  ]

162:                                              ; preds = %160
  br label %163

163:                                              ; preds = %162, %160
  %164 = load ptr, ptr %9, align 8
  %165 = getelementptr inbounds nuw %struct._xmlAttr, ptr %164, i32 0, i32 6
  %166 = load ptr, ptr %165, align 8
  store ptr %166, ptr %9, align 8
  br label %61, !llvm.loop !17

167:                                              ; preds = %61
  store i32 0, ptr %10, align 4
  br label %168

168:                                              ; preds = %167, %49
  call void @llvm.lifetime.end.p0(i64 8, ptr %9) #13
  %169 = load i32, ptr %10, align 4
  switch i32 %169, label %175 [
    i32 0, label %170
  ]

170:                                              ; preds = %168
  br label %171

171:                                              ; preds = %170
  %172 = load i32, ptr %7, align 4
  %173 = add i32 %172, 1
  store i32 %173, ptr %7, align 4
  br label %23, !llvm.loop !18

174:                                              ; preds = %23
  store i32 0, ptr %3, align 4
  store i32 1, ptr %10, align 4
  br label %175

175:                                              ; preds = %174, %168
  call void @llvm.lifetime.end.p0(i64 8, ptr %8) #13
  call void @llvm.lifetime.end.p0(i64 4, ptr %7) #13
  call void @llvm.lifetime.end.p0(i64 8, ptr %6) #13
  %176 = load i32, ptr %3, align 4
  ret i32 %176

177:                                              ; preds = %160
  unreachable
}