; Function Attrs: null_pointer_is_valid sspstrong uwtable
define internal range(i32 -1, 1) i32 @populate_datatype_list(ptr noundef readonly captures(none) %0, ptr noundef readonly captures(none) %1) #0 {
  %3 = alloca ptr, align 8
  %4 = alloca i16, align 2
  %5 = getelementptr inbounds nuw i8, ptr %0, i64 8
  %6 = load i32, ptr %0, align 8
  %7 = icmp sgt i32 %6, 0
  br i1 %7, label %.lr.ph71, label %.critedge59

.lr.ph71:                                         ; preds = %2
  %8 = getelementptr inbounds nuw i8, ptr %1, i64 88
  br label %9

9:                                                ; preds = %.lr.ph71, %._crit_edge68
  %10 = phi i32 [ %6, %.lr.ph71 ], [ %53, %._crit_edge68 ]
  %.04669 = phi i32 [ 0, %.lr.ph71 ], [ %54, %._crit_edge68 ]
  %11 = load ptr, ptr %5, align 8
  %12 = zext nneg i32 %.04669 to i64
  %13 = getelementptr ptr, ptr %11, i64 %12
  %14 = load ptr, ptr %13, align 8
  %.not = icmp eq ptr %14, null
  br i1 %.not, label %.critedge59, label %15

15:                                               ; preds = %9
  %16 = getelementptr inbounds nuw i8, ptr %14, i64 8
  %17 = load i32, ptr %16, align 8
  %.not53 = icmp eq i32 %17, 1
  br i1 %.not53, label %18, label %.critedge59

18:                                               ; preds = %15
  %19 = getelementptr inbounds nuw i8, ptr %14, i64 88
  %.04763 = load ptr, ptr %19, align 8
  %.not5464 = icmp eq ptr %.04763, null
  br i1 %.not5464, label %._crit_edge68, label %.lr.ph67

.lr.ph67:                                         ; preds = %18
  %20 = getelementptr inbounds nuw i8, ptr %14, i64 24
  br label %21

21:                                               ; preds = %.lr.ph67, %51
  %.04765 = phi ptr [ %.04763, %.lr.ph67 ], [ %.047, %51 ]
  call void @llvm.lifetime.start.p0(i64 8, ptr nonnull %3) #13
  %22 = getelementptr inbounds nuw i8, ptr %.04765, i64 16
  %23 = load ptr, ptr %22, align 8
  %24 = getelementptr inbounds nuw i8, ptr %.04765, i64 24
  %25 = load ptr, ptr %24, align 8
  %26 = getelementptr inbounds nuw i8, ptr %25, i64 80
  %27 = load ptr, ptr %26, align 8
  %28 = call i32 @g_str_equal(ptr noundef nonnull @.str.48, ptr noundef %23)
  %.not55 = icmp eq i32 %28, 0
  br i1 %.not55, label %51, label %29

29:                                               ; preds = %21
  call void @llvm.lifetime.start.p0(i64 2, ptr nonnull %4) #13
  store i16 0, ptr %4, align 2
  %30 = call zeroext i1 @ws_hexstrtou16(ptr noundef %27, ptr noundef nonnull %3, ptr noundef nonnull %4)
  br i1 %30, label %31, label %.sink.split

31:                                               ; preds = %29
  %.05060 = load ptr, ptr %20, align 8
  %.not5661 = icmp eq ptr %.05060, null
  br i1 %.not5661, label %.sink.split, label %.lr.ph

.lr.ph:                                           ; preds = %31, %49
  %.05062 = phi ptr [ %.050, %49 ], [ %.05060, %31 ]
  %32 = getelementptr inbounds nuw i8, ptr %.05062, i64 8
  %33 = load i32, ptr %32, align 8
  %34 = icmp eq i32 %33, 1
  br i1 %34, label %35, label %49

35:                                               ; preds = %.lr.ph
  %36 = getelementptr inbounds nuw i8, ptr %.05062, i64 16
  %37 = load ptr, ptr %36, align 8
  %38 = call ptr @epl_type_to_hf(ptr noundef %37)
  %.not57 = icmp eq ptr %38, null
  br i1 %.not57, label %39, label %41

39:                                               ; preds = %35
  %40 = load ptr, ptr %36, align 8
  call void (ptr, i32, ptr, ...) @ws_log(ptr noundef null, i32 noundef 3, ptr noundef nonnull @.str.49, ptr noundef %40)
  br label %49

41:                                               ; preds = %35
  %42 = call noalias dereferenceable_or_null(16) ptr @g_malloc(i64 noundef 16) #17
  %43 = load i16, ptr %4, align 2
  store i16 %43, ptr %42, align 8
  %44 = getelementptr inbounds nuw i8, ptr %42, i64 8
  store ptr %38, ptr %44, align 8
  %45 = load ptr, ptr %8, align 8
  %46 = zext i16 %43 to i64
  %47 = inttoptr i64 %46 to ptr
  %48 = call i32 @g_hash_table_insert(ptr noundef %45, ptr noundef %47, ptr noundef %42)
  br label %49

49:                                               ; preds = %39, %41, %.lr.ph
  %50 = getelementptr inbounds nuw i8, ptr %.05062, i64 48
  %.050 = load ptr, ptr %50, align 8
  %.not56 = icmp eq ptr %.050, null
  br i1 %.not56, label %.sink.split, label %.lr.ph, !llvm.loop !15

.sink.split:                                      ; preds = %49, %29, %31
  call void @llvm.lifetime.end.p0(i64 2, ptr nonnull %4) #13
  br label %51

51:                                               ; preds = %.sink.split, %21
  call void @llvm.lifetime.end.p0(i64 8, ptr nonnull %3) #13
  %52 = getelementptr inbounds nuw i8, ptr %.04765, i64 48
  %.047 = load ptr, ptr %52, align 8
  %.not54 = icmp eq ptr %.047, null
  br i1 %.not54, label %._crit_edge68.loopexit, label %21, !llvm.loop !16

._crit_edge68.loopexit:                           ; preds = %51
  %.pre = load i32, ptr %0, align 8
  br label %._crit_edge68

._crit_edge68:                                    ; preds = %._crit_edge68.loopexit, %18
  %53 = phi i32 [ %.pre, %._crit_edge68.loopexit ], [ %10, %18 ]
  %54 = add nuw nsw i32 %.04669, 1
  %55 = icmp slt i32 %54, %53
  br i1 %55, label %9, label %.critedge59, !llvm.loop !17

.critedge59:                                      ; preds = %._crit_edge68, %9, %15, %2
  %.2 = phi i32 [ 0, %2 ], [ -1, %15 ], [ -1, %9 ], [ 0, %._crit_edge68 ]
  ret i32 %.2
}